target datalayout = "e-m:e-p270:32:32-p271:32:32-p272:64:64-i64:64-i128:128-f80:128-n8:16:32:64-S128"
target triple = "x86_64-pc-linux-gnu"

%struct._zend_refcounted_h = type { i32, %union.anon }
%union.anon = type { i32 }
%struct._zval_struct = type { %union._zend_value, %union.anon.0, %union.anon.3 }
%union._zend_value = type { i64 }
%union.anon.0 = type { i32 }
%union.anon.3 = type { i32 }
%struct._zend_op_array = type { i8, [3 x i8], i32, ptr, ptr, ptr, i32, i32, ptr, ptr, ptr, ptr, i32, ptr, i32, i32, i32, ptr, ptr, ptr, ptr, ptr, i32, i32, ptr, ptr, ptr, i32, i32, i32, i32, ptr, ptr, [6 x ptr] }
%struct._zend_generator = type { %struct._zend_object, ptr, ptr, %struct._zval_struct, %struct._zval_struct, %struct._zval_struct, ptr, i64, %struct._zval_struct, %struct._zend_generator_node, %struct._zend_execute_data, ptr, i8 }
%struct._zend_object = type { %struct._zend_refcounted_h, i32, i32, ptr, ptr, ptr, [1 x %struct._zval_struct] }
%struct._zend_generator_node = type { ptr, i32, %union.anon.4, %union.anon.5 }
%union.anon.4 = type { ptr }
%union.anon.5 = type { ptr }
%struct._zend_execute_data = type { ptr, ptr, ptr, ptr, %struct._zval_struct, ptr, ptr, ptr, ptr }

; Function Attrs: nounwind uwtable
define internal void @zend_generator_cleanup_unfinished_execution(ptr noundef %0, ptr noundef %1, i32 noundef %2) #0 {
  %4 = alloca ptr, align 8
  %5 = alloca ptr, align 8
  %6 = alloca i32, align 4
  %7 = alloca ptr, align 8
  %8 = alloca i32, align 4
  %9 = alloca ptr, align 8
  store ptr %0, ptr %4, align 8, !tbaa !4
  store ptr %1, ptr %5, align 8, !tbaa !9
  store i32 %2, ptr %6, align 4, !tbaa !32
  call void @llvm.lifetime.start.p0(i64 8, ptr %7) #11
  %10 = load ptr, ptr %5, align 8, !tbaa !9
  %11 = getelementptr inbounds nuw %struct._zend_execute_data, ptr %10, i32 0, i32 3
  %12 = load ptr, ptr %11, align 8, !tbaa !27
  store ptr %12, ptr %7, align 8, !tbaa !61
  %13 = load ptr, ptr %5, align 8, !tbaa !9
  %14 = getelementptr inbounds nuw %struct._zend_execute_data, ptr %13, i32 0, i32 0
  %15 = load ptr, ptr %14, align 8, !tbaa !62
  %16 = load ptr, ptr %7, align 8, !tbaa !61
  %17 = getelementptr inbounds nuw %struct._zend_op_array, ptr %16, i32 0, i32 17
  %18 = load ptr, ptr %17, align 8, !tbaa !63
  %19 = icmp ne ptr %15, %18
  br i1 %19, label %20, label %57

20:                                               ; preds = %3
  call void @llvm.lifetime.start.p0(i64 4, ptr %8) #11
  %21 = load ptr, ptr %5, align 8, !tbaa !9
  %22 = getelementptr inbounds nuw %struct._zend_execute_data, ptr %21, i32 0, i32 0
  %23 = load ptr, ptr %22, align 8, !tbaa !62
  %24 = load ptr, ptr %7, align 8, !tbaa !61
  %25 = getelementptr inbounds nuw %struct._zend_op_array, ptr %24, i32 0, i32 17
  %26 = load ptr, ptr %25, align 8, !tbaa !63
  %27 = ptrtoint ptr %23 to i64
  %28 = ptrtoint ptr %26 to i64
  %29 = sub i64 %27, %28
  %30 = sdiv exact i64 %29, 32
  %31 = trunc i64 %30 to i32
  store i32 %31, ptr %8, align 4, !tbaa !32
  %32 = load ptr, ptr %4, align 8, !tbaa !4
  %33 = getelementptr inbounds nuw %struct._zend_generator, ptr %32, i32 0, i32 2
  %34 = load ptr, ptr %33, align 8, !tbaa !11
  %35 = icmp ne ptr %34, null
  %36 = xor i1 %35, true
  %37 = xor i1 %36, true
  %38 = zext i1 %37 to i32
  %39 = sext i32 %38 to i64
  %40 = call i64 @llvm.expect.i64(i64 %39, i64 0)
  %41 = icmp ne i64 %40, 0
  br i1 %41, label %42, label %53

42:                                               ; preds = %20
  call void @llvm.lifetime.start.p0(i64 8, ptr %9) #11
  %43 = load ptr, ptr %4, align 8, !tbaa !4
  %44 = getelementptr inbounds nuw %struct._zend_generator, ptr %43, i32 0, i32 1
  %45 = load ptr, ptr %44, align 8, !tbaa !30
  store ptr %45, ptr %9, align 8, !tbaa !9
  %46 = load ptr, ptr %5, align 8, !tbaa !9
  %47 = load ptr, ptr %4, align 8, !tbaa !4
  %48 = getelementptr inbounds nuw %struct._zend_generator, ptr %47, i32 0, i32 1
  store ptr %46, ptr %48, align 8, !tbaa !30
  %49 = load ptr, ptr %4, align 8, !tbaa !4
  call void @zend_generator_restore_call_stack(ptr noundef %49)
  %50 = load ptr, ptr %9, align 8, !tbaa !9
  %51 = load ptr, ptr %4, align 8, !tbaa !4
  %52 = getelementptr inbounds nuw %struct._zend_generator, ptr %51, i32 0, i32 1
  store ptr %50, ptr %52, align 8, !tbaa !30
  call void @llvm.lifetime.end.p0(i64 8, ptr %9) #11
  br label %53

53:                                               ; preds = %42, %20
  %54 = load ptr, ptr %5, align 8, !tbaa !9
  %55 = load i32, ptr %8, align 4, !tbaa !32
  %56 = load i32, ptr %6, align 4, !tbaa !32
  call void @zend_cleanup_unfinished_execution(ptr noundef %54, i32 noundef %55, i32 noundef %56)
  call void @llvm.lifetime.end.p0(i64 4, ptr %8) #11
  br label %57

57:                                               ; preds = %53, %3
  call void @llvm.lifetime.end.p0(i64 8, ptr %7) #11
  ret void
}