; Function Attrs: nounwind uwtable
define internal fastcc void @zend_generator_cleanup_unfinished_execution(ptr noundef captures(none) %0, ptr noundef %1, i32 noundef %2) unnamed_addr #0 {
  %4 = getelementptr inbounds nuw i8, ptr %1, i64 24
  %5 = load ptr, ptr %4, align 8, !tbaa !25
  %6 = load ptr, ptr %1, align 8, !tbaa !82
  %7 = getelementptr inbounds nuw i8, ptr %5, i64 104
  %8 = load ptr, ptr %7, align 8, !tbaa !83
  %.not = icmp eq ptr %6, %8
  br i1 %.not, label %21, label %9

9:                                                ; preds = %3
  %10 = ptrtoint ptr %6 to i64
  %11 = ptrtoint ptr %8 to i64
  %12 = sub i64 %10, %11
  %13 = lshr exact i64 %12, 5
  %14 = trunc i64 %13 to i32
  %15 = getelementptr inbounds nuw i8, ptr %0, i64 64
  %16 = load ptr, ptr %15, align 8, !tbaa !4
  %.not15 = icmp eq ptr %16, null
  br i1 %.not15, label %20, label %17, !prof !58

17:                                               ; preds = %9
  %18 = getelementptr inbounds nuw i8, ptr %0, i64 56
  %19 = load ptr, ptr %18, align 8, !tbaa !56
  store ptr %1, ptr %18, align 8, !tbaa !56
  tail call void @zend_generator_restore_call_stack(ptr noundef nonnull %0)
  store ptr %19, ptr %18, align 8, !tbaa !56
  br label %20

20:                                               ; preds = %17, %9
  tail call void @zend_cleanup_unfinished_execution(ptr noundef nonnull %1, i32 noundef %14, i32 noundef %2) #11
  br label %21

21:                                               ; preds = %20, %3
  ret void
}